target datalayout = "e-m:e-p270:32:32-p271:32:32-p272:64:64-i64:64-i128:128-f80:128-n8:16:32:64-S128"
target triple = "x86_64-pc-linux-gnu"

@hf_ipmi_se_16_status = internal global i32 0, align 4

; Function Attrs: null_pointer_is_valid sspstrong uwtable
define internal void @rs16(ptr noundef %0, ptr noundef %1, ptr noundef %2) #0 {
  %4 = alloca ptr, align 8
  %5 = alloca ptr, align 8
  %6 = alloca ptr, align 8
  %7 = alloca i32, align 4
  store ptr %0, ptr %4, align 8
  store ptr %1, ptr %5, align 8
  store ptr %2, ptr %6, align 8
  call void @llvm.lifetime.start.p0(i64 4, ptr %7) #5
  %8 = load ptr, ptr %5, align 8
  %9 = call zeroext i1 @ipmi_get_data(ptr noundef %8, i32 noundef 0, ptr noundef %7)
  br i1 %9, label %10, label %18

10:                                               ; preds = %3
  %11 = load i32, ptr %7, align 4
  %12 = icmp eq i32 %11, 1
  br i1 %12, label %13, label %18

13:                                               ; preds = %10
  %14 = load ptr, ptr %6, align 8
  %15 = load i32, ptr @hf_ipmi_se_16_status, align 4
  %16 = load ptr, ptr %4, align 8
  %17 = call ptr @proto_tree_add_item(ptr noundef %14, i32 noundef %15, ptr noundef %16, i32 noundef 0, i32 noundef 1, i32 noundef -2147483648)
  br label %18

18:                                               ; preds = %13, %10, %3
  call void @llvm.lifetime.end.p0(i64 4, ptr %7) #5
  ret void
}