; Function Attrs: null_pointer_is_valid sspstrong uwtable
define internal void @rs16(ptr noundef %0, ptr noundef %1, ptr noundef %2) #0 {
  %4 = alloca i32, align 4
  call void @llvm.lifetime.start.p0(i64 4, ptr nonnull %4) #4
  %5 = call zeroext i1 @ipmi_get_data(ptr noundef %1, i32 noundef 0, ptr noundef nonnull %4)
  %6 = load i32, ptr %4, align 4
  %7 = icmp eq i32 %6, 1
  %or.cond = select i1 %5, i1 %7, i1 false
  br i1 %or.cond, label %8, label %11

8:                                                ; preds = %3
  %9 = load i32, ptr @hf_ipmi_se_16_status, align 4
  %10 = call ptr @proto_tree_add_item(ptr noundef %2, i32 noundef %9, ptr noundef %0, i32 noundef 0, i32 noundef 1, i32 noundef -2147483648)
  br label %11

11:                                               ; preds = %8, %3
  call void @llvm.lifetime.end.p0(i64 4, ptr nonnull %4) #4
  ret void
}